target datalayout = "e-m:e-p270:32:32-p271:32:32-p272:64:64-i64:64-i128:128-f80:128-n8:16:32:64-S128"
target triple = "x86_64-pc-linux-gnu"

%struct.redisServer = type { i32, i64, ptr, ptr, ptr, i32, i32, i32, i32, i32, ptr, ptr, ptr, ptr, ptr, i32, i32, i32, i32, i64, i32, i32, i32, i32, ptr, i32, i32, [41 x i8], i32, i64, i32, i32, i32, ptr, ptr, i32, i32, i64, ptr, ptr, ptr, ptr, [2 x i32], i32, i32, i32, i32, i32, i32, [16 x ptr], i32, ptr, ptr, i32, [8 x %struct.connListener], i32, %struct.connListener, ptr, ptr, ptr, ptr, ptr, ptr, ptr, ptr, ptr, ptr, i32, ptr, i32, ptr, [3 x %struct.pause_event], [256 x i8], ptr, i64, i32, i32, [128 x i32], i32, i32, i64, i32, i32, i32, i32, i32, i64, i64, i64, i64, i64, i64, i64, i64, i64, i64, double, i64, i64, i64, i64, i64, i64, i64, i64, i64, i64, i64, i64, i64, i64, i64, i64, i64, i64, i64, i64, i64, double, i64, i64, i64, i64, i64, ptr, i64, i64, i64, %struct.malloc_stats, i64, i64, i64, i64, i64, i64, i64, i64, i64, i64, i64, i64, double, [4 x i64], i64, i64, i64, i64, [128 x i64], [128 x i64], i64, i64, [7 x %struct.anon], i64, i64, i64, i64, i64, i64, [4 x %struct.durationStats], i32, i32, i32, i32, i32, i32, i32, i32, i32, i32, i32, i32, i64, i32, i32, i32, i32, i64, i64, i32, i32, i32, i32, i32, ptr, [3 x %struct.clientBufferLimitsConfig], i32, i32, i32, ptr, i32, i32, i32, i32, i32, i32, ptr, ptr, i32, i32, i64, i64, i64, i64, i64, i32, i32, ptr, i32, i32, i64, i64, i64, i64, i64, i32, i32, i64, i32, i32, i32, i32, i32, i32, i32, i32, ptr, i32, i64, i64, i64, i64, i32, ptr, i32, ptr, i32, i32, i32, i64, i64, i64, i64, i32, i32, i32, i32, i32, i32, ptr, i32, i32, ptr, i32, i32, i32, [2 x i32], i32, %struct.redisOpArray, i32, ptr, i32, ptr, i32, i32, i32, i32, i32, i32, i32, [41 x i8], [41 x i8], i64, i64, i64, i64, i32, i32, ptr, i64, i64, %struct.replDataBuf, i64, i64, i32, i32, i32, i32, i32, i32, i32, i32, i32, i64, ptr, i64, ptr, ptr, ptr, i32, i32, ptr, ptr, i32, i32, i32, i64, i64, i64, i64, ptr, ptr, i32, ptr, i64, i32, i32, i32, i64, i32, i32, i32, i32, ptr, i32, i32, [41 x i8], i64, i32, ptr, i32, i32, i64, i64, i32, i32, i32, i32, i32, i64, [3 x i32], i32, i32, i32, [10 x i32], ptr, ptr, i32, i64, ptr, ptr, i32, i32, i32, i32, i64, i64, i64, i64, i64, i64, i64, i64, i64, i64, i32, i32, i64, i64, i32, i64, i64, i64, i64, i64, ptr, ptr, i32, ptr, i32, i32, i32, i32, i64, i64, ptr, ptr, i32, i32, i32, i32, i32, ptr, ptr, ptr, i32, i32, i32, i32, i32, i32, i32, i64, i32, i32, i64, i32, i32, i32, i32, i32, i32, i32, i64, ptr, ptr, i64, ptr, i32, %struct.aclInfo, i32, i64, i32, i32, i32, %struct.redisTLSContextConfig, ptr, ptr, ptr, ptr, ptr, i64, i32, ptr, i32, i32, i32, i64, i32, ptr }
%struct.connListener = type { [16 x i32], i32, ptr, i32, i32, ptr, ptr }
%struct.pause_event = type { i32, i64 }
%struct.malloc_stats = type { i64, i64, i64, i64, i64, i64, i64, i64, i64, i64, i64 }
%struct.anon = type { i64, i64, [16 x i64], i32 }
%struct.durationStats = type { i64, i64, i64 }
%struct.clientBufferLimitsConfig = type { i64, i64, i64 }
%struct.redisOpArray = type { ptr, i32, i32 }
%struct.replDataBuf = type { ptr, i64, i64, i64, i64 }
%struct.aclInfo = type { i64, i64, i64, i64 }
%struct.redisTLSContextConfig = type { ptr, ptr, ptr, ptr, ptr, ptr, ptr, ptr, ptr, ptr, ptr, ptr, i32, i32, i32, i32 }
%struct.aclSelector = type { i32, [16 x i64], ptr, ptr, ptr, ptr }
%struct.list = type { ptr, ptr, ptr, ptr, ptr, i64 }
%struct.user = type { ptr, i32, ptr, ptr, ptr }

@server = external global %struct.redisServer, align 8
@Users = dso_local global ptr null, align 8

; Function Attrs: nounwind uwtable
define dso_local ptr @ACLCreateSelector(i32 noundef %0) #0 {
  %2 = alloca i32, align 4
  %3 = alloca ptr, align 8
  store i32 %0, ptr %2, align 4, !tbaa !17
  call void @llvm.lifetime.start.p0(i64 8, ptr %3) #14
  %4 = call noalias ptr @zmalloc(i64 noundef 168) #13
  store ptr %4, ptr %3, align 8, !tbaa !32
  %5 = load i32, ptr %2, align 4, !tbaa !17
  %6 = load i32, ptr getelementptr inbounds nuw (%struct.redisServer, ptr @server, i32 0, i32 417), align 8, !tbaa !38
  %7 = or i32 %5, %6
  %8 = load ptr, ptr %3, align 8, !tbaa !32
  %9 = getelementptr inbounds nuw %struct.aclSelector, ptr %8, i32 0, i32 0
  store i32 %7, ptr %9, align 8, !tbaa !64
  %10 = call ptr @listCreate()
  %11 = load ptr, ptr %3, align 8, !tbaa !32
  %12 = getelementptr inbounds nuw %struct.aclSelector, ptr %11, i32 0, i32 3
  store ptr %10, ptr %12, align 8, !tbaa !67
  %13 = call ptr @listCreate()
  %14 = load ptr, ptr %3, align 8, !tbaa !32
  %15 = getelementptr inbounds nuw %struct.aclSelector, ptr %14, i32 0, i32 4
  store ptr %13, ptr %15, align 8, !tbaa !68
  %16 = load ptr, ptr %3, align 8, !tbaa !32
  %17 = getelementptr inbounds nuw %struct.aclSelector, ptr %16, i32 0, i32 2
  store ptr null, ptr %17, align 8, !tbaa !69
  %18 = call ptr @sdsempty()
  %19 = load ptr, ptr %3, align 8, !tbaa !32
  %20 = getelementptr inbounds nuw %struct.aclSelector, ptr %19, i32 0, i32 5
  store ptr %18, ptr %20, align 8, !tbaa !70
  %21 = load ptr, ptr %3, align 8, !tbaa !32
  %22 = getelementptr inbounds nuw %struct.aclSelector, ptr %21, i32 0, i32 3
  %23 = load ptr, ptr %22, align 8, !tbaa !67
  %24 = getelementptr inbounds nuw %struct.list, ptr %23, i32 0, i32 4
  store ptr @ACLListMatchKeyPattern, ptr %24, align 8, !tbaa !71
  %25 = load ptr, ptr %3, align 8, !tbaa !32
  %26 = getelementptr inbounds nuw %struct.aclSelector, ptr %25, i32 0, i32 3
  %27 = load ptr, ptr %26, align 8, !tbaa !67
  %28 = getelementptr inbounds nuw %struct.list, ptr %27, i32 0, i32 3
  store ptr @ACLListFreeKeyPattern, ptr %28, align 8, !tbaa !74
  %29 = load ptr, ptr %3, align 8, !tbaa !32
  %30 = getelementptr inbounds nuw %struct.aclSelector, ptr %29, i32 0, i32 3
  %31 = load ptr, ptr %30, align 8, !tbaa !67
  %32 = getelementptr inbounds nuw %struct.list, ptr %31, i32 0, i32 2
  store ptr @ACLListDupKeyPattern, ptr %32, align 8, !tbaa !75
  %33 = load ptr, ptr %3, align 8, !tbaa !32
  %34 = getelementptr inbounds nuw %struct.aclSelector, ptr %33, i32 0, i32 4
  %35 = load ptr, ptr %34, align 8, !tbaa !68
  %36 = getelementptr inbounds nuw %struct.list, ptr %35, i32 0, i32 4
  store ptr @ACLListMatchSds, ptr %36, align 8, !tbaa !71
  %37 = load ptr, ptr %3, align 8, !tbaa !32
  %38 = getelementptr inbounds nuw %struct.aclSelector, ptr %37, i32 0, i32 4
  %39 = load ptr, ptr %38, align 8, !tbaa !68
  %40 = getelementptr inbounds nuw %struct.list, ptr %39, i32 0, i32 3
  store ptr @ACLListFreeSds, ptr %40, align 8, !tbaa !74
  %41 = load ptr, ptr %3, align 8, !tbaa !32
  %42 = getelementptr inbounds nuw %struct.aclSelector, ptr %41, i32 0, i32 4
  %43 = load ptr, ptr %42, align 8, !tbaa !68
  %44 = getelementptr inbounds nuw %struct.list, ptr %43, i32 0, i32 2
  store ptr @ACLListDupSds, ptr %44, align 8, !tbaa !75
  %45 = load ptr, ptr %3, align 8, !tbaa !32
  %46 = getelementptr inbounds nuw %struct.aclSelector, ptr %45, i32 0, i32 1
  %47 = getelementptr inbounds [16 x i64], ptr %46, i64 0, i64 0
  call void @llvm.memset.p0.i64(ptr align 8 %47, i8 0, i64 128, i1 false)
  %48 = load ptr, ptr %3, align 8, !tbaa !32
  call void @llvm.lifetime.end.p0(i64 8, ptr %3) #14
  ret ptr %48
}

; Function Attrs: nounwind uwtable
define dso_local ptr @ACLCreateUser(ptr noundef %0, i64 noundef %1) #0 {
  %3 = alloca ptr, align 8
  %4 = alloca ptr, align 8
  %5 = alloca i64, align 8
  %6 = alloca ptr, align 8
  %7 = alloca ptr, align 8
  store ptr %0, ptr %4, align 8, !tbaa !5
  store i64 %1, ptr %5, align 8, !tbaa !10
  %8 = load ptr, ptr @Users, align 8, !tbaa !88
  %9 = load ptr, ptr %4, align 8, !tbaa !5
  %10 = load i64, ptr %5, align 8, !tbaa !10
  %11 = call i32 @raxFind(ptr noundef %8, ptr noundef %9, i64 noundef %10, ptr noundef null)
  %12 = icmp ne i32 %11, 0
  br i1 %12, label %13, label %14

13:                                               ; preds = %2
  store ptr null, ptr %3, align 8
  br label %67

14:                                               ; preds = %2
  call void @llvm.lifetime.start.p0(i64 8, ptr %6) #14
  %15 = call noalias ptr @zmalloc(i64 noundef 40) #13
  store ptr %15, ptr %6, align 8, !tbaa !32
  %16 = load ptr, ptr %4, align 8, !tbaa !5
  %17 = load i64, ptr %5, align 8, !tbaa !10
  %18 = call ptr @sdsnewlen(ptr noundef %16, i64 noundef %17)
  %19 = load ptr, ptr %6, align 8, !tbaa !32
  %20 = getelementptr inbounds nuw %struct.user, ptr %19, i32 0, i32 0
  store ptr %18, ptr %20, align 8, !tbaa !89
  %21 = load ptr, ptr %6, align 8, !tbaa !32
  %22 = getelementptr inbounds nuw %struct.user, ptr %21, i32 0, i32 1
  store i32 2, ptr %22, align 8, !tbaa !90
  %23 = load ptr, ptr %6, align 8, !tbaa !32
  %24 = getelementptr inbounds nuw %struct.user, ptr %23, i32 0, i32 1
  %25 = load i32, ptr %24, align 8, !tbaa !90
  %26 = or i32 %25, 8
  store i32 %26, ptr %24, align 8, !tbaa !90
  %27 = call ptr @listCreate()
  %28 = load ptr, ptr %6, align 8, !tbaa !32
  %29 = getelementptr inbounds nuw %struct.user, ptr %28, i32 0, i32 2
  store ptr %27, ptr %29, align 8, !tbaa !91
  %30 = load ptr, ptr %6, align 8, !tbaa !32
  %31 = getelementptr inbounds nuw %struct.user, ptr %30, i32 0, i32 4
  store ptr null, ptr %31, align 8, !tbaa !92
  %32 = load ptr, ptr %6, align 8, !tbaa !32
  %33 = getelementptr inbounds nuw %struct.user, ptr %32, i32 0, i32 2
  %34 = load ptr, ptr %33, align 8, !tbaa !91
  %35 = getelementptr inbounds nuw %struct.list, ptr %34, i32 0, i32 4
  store ptr @ACLListMatchSds, ptr %35, align 8, !tbaa !71
  %36 = load ptr, ptr %6, align 8, !tbaa !32
  %37 = getelementptr inbounds nuw %struct.user, ptr %36, i32 0, i32 2
  %38 = load ptr, ptr %37, align 8, !tbaa !91
  %39 = getelementptr inbounds nuw %struct.list, ptr %38, i32 0, i32 3
  store ptr @ACLListFreeSds, ptr %39, align 8, !tbaa !74
  %40 = load ptr, ptr %6, align 8, !tbaa !32
  %41 = getelementptr inbounds nuw %struct.user, ptr %40, i32 0, i32 2
  %42 = load ptr, ptr %41, align 8, !tbaa !91
  %43 = getelementptr inbounds nuw %struct.list, ptr %42, i32 0, i32 2
  store ptr @ACLListDupSds, ptr %43, align 8, !tbaa !75
  %44 = call ptr @listCreate()
  %45 = load ptr, ptr %6, align 8, !tbaa !32
  %46 = getelementptr inbounds nuw %struct.user, ptr %45, i32 0, i32 3
  store ptr %44, ptr %46, align 8, !tbaa !81
  %47 = load ptr, ptr %6, align 8, !tbaa !32
  %48 = getelementptr inbounds nuw %struct.user, ptr %47, i32 0, i32 3
  %49 = load ptr, ptr %48, align 8, !tbaa !81
  %50 = getelementptr inbounds nuw %struct.list, ptr %49, i32 0, i32 3
  store ptr @ACLListFreeSelector, ptr %50, align 8, !tbaa !74
  %51 = load ptr, ptr %6, align 8, !tbaa !32
  %52 = getelementptr inbounds nuw %struct.user, ptr %51, i32 0, i32 3
  %53 = load ptr, ptr %52, align 8, !tbaa !81
  %54 = getelementptr inbounds nuw %struct.list, ptr %53, i32 0, i32 2
  store ptr @ACLListDuplicateSelector, ptr %54, align 8, !tbaa !75
  call void @llvm.lifetime.start.p0(i64 8, ptr %7) #14
  %55 = call ptr @ACLCreateSelector(i32 noundef 1)
  store ptr %55, ptr %7, align 8, !tbaa !32
  %56 = load ptr, ptr %6, align 8, !tbaa !32
  %57 = getelementptr inbounds nuw %struct.user, ptr %56, i32 0, i32 3
  %58 = load ptr, ptr %57, align 8, !tbaa !81
  %59 = load ptr, ptr %7, align 8, !tbaa !32
  %60 = call ptr @listAddNodeHead(ptr noundef %58, ptr noundef %59)
  %61 = load ptr, ptr @Users, align 8, !tbaa !88
  %62 = load ptr, ptr %4, align 8, !tbaa !5
  %63 = load i64, ptr %5, align 8, !tbaa !10
  %64 = load ptr, ptr %6, align 8, !tbaa !32
  %65 = call i32 @raxInsert(ptr noundef %61, ptr noundef %62, i64 noundef %63, ptr noundef %64, ptr noundef null)
  %66 = load ptr, ptr %6, align 8, !tbaa !32
  store ptr %66, ptr %3, align 8
  call void @llvm.lifetime.end.p0(i64 8, ptr %7) #14
  call void @llvm.lifetime.end.p0(i64 8, ptr %6) #14
  br label %67

67:                                               ; preds = %14, %13
  %68 = load ptr, ptr %3, align 8
  ret ptr %68
}