; Function Attrs: nounwind uwtable
define dso_local noundef ptr @ACLCreateUser(ptr noundef %0, i64 noundef %1) local_unnamed_addr #0 {
  %3 = load ptr, ptr @Users, align 8, !tbaa !87
  %4 = tail call i32 @raxFind(ptr noundef %3, ptr noundef %0, i64 noundef %1, ptr noundef null) #25
  %.not = icmp eq i32 %4, 0
  br i1 %.not, label %5, label %39

5:                                                ; preds = %2
  %6 = tail call noalias dereferenceable_or_null(40) ptr @zmalloc(i64 noundef 40) #26
  %7 = tail call ptr @sdsnewlen(ptr noundef %0, i64 noundef %1) #25
  store ptr %7, ptr %6, align 8, !tbaa !88
  %8 = getelementptr inbounds nuw i8, ptr %6, i64 8
  store i32 10, ptr %8, align 8, !tbaa !89
  %9 = tail call ptr @listCreate() #25
  %10 = getelementptr inbounds nuw i8, ptr %6, i64 16
  store ptr %9, ptr %10, align 8, !tbaa !90
  %11 = getelementptr inbounds nuw i8, ptr %6, i64 32
  store ptr null, ptr %11, align 8, !tbaa !91
  %12 = getelementptr inbounds nuw i8, ptr %9, i64 32
  store ptr @ACLListMatchSds, ptr %12, align 8, !tbaa !68
  %13 = getelementptr inbounds nuw i8, ptr %9, i64 24
  store ptr @ACLListFreeSds, ptr %13, align 8, !tbaa !71
  %14 = getelementptr inbounds nuw i8, ptr %9, i64 16
  store ptr @ACLListDupSds, ptr %14, align 8, !tbaa !72
  %15 = tail call ptr @listCreate() #25
  %16 = getelementptr inbounds nuw i8, ptr %6, i64 24
  store ptr %15, ptr %16, align 8, !tbaa !79
  %17 = getelementptr inbounds nuw i8, ptr %15, i64 24
  store ptr @ACLListFreeSelector, ptr %17, align 8, !tbaa !71
  %18 = getelementptr inbounds nuw i8, ptr %15, i64 16
  store ptr @ACLListDuplicateSelector, ptr %18, align 8, !tbaa !72
  %19 = tail call noalias dereferenceable_or_null(168) ptr @zmalloc(i64 noundef 168) #26
  %20 = load i32, ptr getelementptr inbounds nuw (i8, ptr @server, i64 8104), align 8, !tbaa !34
  %21 = or i32 %20, 1
  store i32 %21, ptr %19, align 8, !tbaa !61
  %22 = tail call ptr @listCreate() #25
  %23 = getelementptr inbounds nuw i8, ptr %19, i64 144
  store ptr %22, ptr %23, align 8, !tbaa !64
  %24 = tail call ptr @listCreate() #25
  %25 = getelementptr inbounds nuw i8, ptr %19, i64 152
  store ptr %24, ptr %25, align 8, !tbaa !65
  %26 = getelementptr inbounds nuw i8, ptr %19, i64 136
  store ptr null, ptr %26, align 8, !tbaa !66
  %27 = tail call ptr @sdsempty() #25
  %28 = getelementptr inbounds nuw i8, ptr %19, i64 160
  store ptr %27, ptr %28, align 8, !tbaa !67
  %29 = getelementptr inbounds nuw i8, ptr %22, i64 32
  store ptr @ACLListMatchKeyPattern, ptr %29, align 8, !tbaa !68
  %30 = getelementptr inbounds nuw i8, ptr %22, i64 24
  store ptr @ACLListFreeKeyPattern, ptr %30, align 8, !tbaa !71
  %31 = getelementptr inbounds nuw i8, ptr %22, i64 16
  store ptr @ACLListDupKeyPattern, ptr %31, align 8, !tbaa !72
  %32 = getelementptr inbounds nuw i8, ptr %24, i64 32
  store ptr @ACLListMatchSds, ptr %32, align 8, !tbaa !68
  %33 = getelementptr inbounds nuw i8, ptr %24, i64 24
  store ptr @ACLListFreeSds, ptr %33, align 8, !tbaa !71
  %34 = getelementptr inbounds nuw i8, ptr %24, i64 16
  store ptr @ACLListDupSds, ptr %34, align 8, !tbaa !72
  %35 = getelementptr inbounds nuw i8, ptr %19, i64 8
  tail call void @llvm.memset.p0.i64(ptr noundef nonnull align 8 dereferenceable(128) %35, i8 0, i64 128, i1 false)
  %36 = tail call ptr @listAddNodeHead(ptr noundef %15, ptr noundef nonnull %19) #25
  %37 = load ptr, ptr @Users, align 8, !tbaa !87
  %38 = tail call i32 @raxInsert(ptr noundef %37, ptr noundef %0, i64 noundef %1, ptr noundef nonnull %6, ptr noundef null) #25
  br label %39

39:                                               ; preds = %2, %5
  %.0 = phi ptr [ %6, %5 ], [ null, %2 ]
  ret ptr %.0
}